Certificate:
    Data:
        Version: 1 (0x0)
        Serial Number: 77 (0x4d)
        Signature Algorithm: md5WithRSAEncryption
        Issuer: O=VERIFONE, OU=DSS/emailAddress=henry_n2@verifone.com, L=ORTIGAS, ST=NCR, C=PH, CN=CA
        Validity
            Not Before: Sep 23 05:00:19 2009 GMT
            Not After : Sep 23 05:00:19 2010 GMT
        Subject: C=PH, ST=NCR, O=VERIFONE, OU=DSS, CN=192.168.0.101
        Subject Public Key Info:
            Public Key Algorithm: rsaEncryption
            RSA Public Key: (1024 bit)
                Modulus (1024 bit):
                    00:cd:92:f9:4e:db:2b:42:1f:3c:d7:f5:01:c2:16:
                    32:df:1a:42:9c:b5:2b:43:02:ea:9e:de:7a:f7:f3:
                    39:6b:44:8e:b3:fb:67:74:00:2d:14:38:1d:90:e6:
                    ea:6e:a2:5f:11:db:71:dc:f9:69:d4:ea:1a:f8:07:
                    9b:4d:47:44:ff:92:e9:ae:aa:bf:3c:57:73:a0:86:
                    3d:e6:85:ec:c9:03:46:40:0f:b4:cd:17:7b:1b:4d:
                    54:1e:0f:7c:ab:62:f4:e2:69:05:aa:f0:04:60:c8:
                    f9:69:0c:e9:a6:be:db:e8:86:a7:ac:a9:1a:81:2b:
                    f5:45:ff:4c:6a:a6:63:e7:d7
                Exponent: 65537 (0x10001)
    Signature Algorithm: md5WithRSAEncryption
        7a:2c:c2:1d:1d:de:37:78:80:54:38:a1:d4:a1:b0:25:a7:6c:
        c1:81:3b:db:26:e5:fc:00:a2:b7:7a:09:ec:fa:9b:d1:07:5b:
        ca:ed:58:4d:0d:e0:37:a5:60:b9:ea:08:5b:d3:0f:d6:77:65:
        f2:ff:80:fc:6f:a6:57:c8:cf:6a:57:ca:bb:c1:b6:f5:08:14:
        75:83:3c:aa:b5:2e:0f:62:6a:f9:69:fe:2c:6c:ac:d7:7f:7b:
        55:a5:a3:f5:53:3d:a6:c7:bf:00:a1:17:98:5b:05:dc:7b:32:
        f6:0e:e3:22:aa:32:f8:44:78:4f:c3:f2:cb:07:11:2f:5a:b5:
        56:33
-----BEGIN CERTIFICATE-----
MIICRTCCAa4CAU0wDQYJKoZIhvcNAQEEBQAwgYExETAPBgNVBAoTCFZFUklGT05F
MQwwCgYDVQQLEwNEU1MxJDAiBgkqhkiG9w0BCQEWFWhlbnJ5X24yQHZlcmlmb25l
LmNvbTEQMA4GA1UEBxMHT1JUSUdBUzEMMAoGA1UECBMDTkNSMQswCQYDVQQGEwJQ
SDELMAkGA1UEAxMCQ0EwHhcNMDkwOTIzMDUwMDE5WhcNMTAwOTIzMDUwMDE5WjBU
MQswCQYDVQQGEwJQSDEMMAoGA1UECBMDTkNSMREwDwYDVQQKEwhWRVJJRk9ORTEM
MAoGA1UECxMDRFNTMRYwFAYDVQQDEw0xOTIuMTY4LjAuMTAxMIGfMA0GCSqGSIb3
DQEBAQUAA4GNADCBiQKBgQDNkvlO2ytCHzzX9QHCFjLfGkKctStDAuqe3nr38zlr
RI6z+2d0AC0UOB2Q5upuol8R23Hc+WnU6hr4B5tNR0T/kumuqr88V3Oghj3mhezJ
A0ZAD7TNF3sbTVQeD3yrYvTiaQWq8ARgyPlpDOmmvtvohqesqRqBK/VF/0xqpmPn
1wIDAQABMA0GCSqGSIb3DQEBBAUAA4GBAHoswh0d3jd4gFQ4odShsCWnbMGBO9sm
5fwAord6Cez6m9EHW8rtWE0N4DelYLnqCFvTD9Z3ZfL/gPxvplfIz2pXyrvBtvUI
FHWDPKq1Lg9iavlp/ixsrNd/e1Wlo/VTPabHvwChF5hbBdx7MvYO4yKqMvhEeE/D
8ssHES9atVYz
-----END CERTIFICATE-----
